
Memory Configuration

Name             Origin             Length             Attributes
*default*        0x00000000         0xffffffff

Linker script and memory map

LOAD build/framebuffer.o
LOAD build/jtag.o
LOAD build/move.o
LOAD build/draw.o
LOAD build/menus.o
LOAD build/interrupt.o
LOAD build/main.o
LOAD build/asset.o
LOAD build/Stats.o
LOAD build/gameState.o
LOAD build/SNESControl.o

.init           0x00008000        0x4
 *(.init)
 .init          0x00008000        0x4 build/main.o
                0x00008000                _start

.data           0x00009080   0x1f84af
 *(.data)
 .data          0x00009080       0x70 build/framebuffer.o
                0x000090e0                FrameBufferPointer
 .data          0x000090f0        0x0 build/jtag.o
 .data          0x000090f0        0x0 build/move.o
 .data          0x000090f0        0x0 build/draw.o
 .data          0x000090f0        0x0 build/menus.o
 .data          0x000090f0       0x44 build/interrupt.o
 .data          0x00009134        0x0 build/main.o
 *fill*         0x00009134        0xc 3f3f3f3f
 .data          0x00009140   0x1f7000 build/asset.o
                0x00009140                castle
                0x00009a48                Goomba
                0x0000a350                Turle
                0x0000ac58                Sky
                0x0000b560                Ground
                0x0000bde0                pipe
                0x0000c6e8                Mario
                0x0000cff0                cloud
                0x0000d8f8                brick
                0x0000e200                qBox
                0x0000eb08                coin
                0x0000f410                letterA
                0x0000fd18                blackOut
                0x00010518                font
                0x00010d20                selectionMushroom
                0x00011628                mainMenuScreen
                0x001284a8                PauseMenu
                0x001743a8                OrangeSquare
                0x00174cb0                PauseStar
                0x001755b8                YouWin
                0x001b843a                YouLose
                0x001ff82e                LifeMushroom
 .data          0x00200140      0x830 build/Stats.o
 .data          0x00200970      0xbbf build/gameState.o
                0x00200970                livesNum
                0x00200971                currentLevel
                0x00200972                currentCoins
                0x00200973                currentScore
                0x00200974                WinFlag
                0x00200975                LoseFlag
                0x00200976                PauseFlag
                0x00200977                GameMap
                0x00200b6b                GameMap1
                0x00200b6b                EndMap
                0x00200d5f                GameMap2
                0x00200d5f                EndMap1
                0x00200f53                GameMap3
                0x00200f53                EndMap2
                0x00201147                EndMap3
                0x00201147                GameMapLeft1
                0x0020133b                GameMapLeft2
                0x0020133b                EndMapLeft1
                0x0020152f                EndMapLeft2
 .data          0x0020152f        0x0 build/SNESControl.o
 *.c.o(*)

.igot.plt       0x00201530        0x0
 .igot.plt      0x00000000        0x0 build/framebuffer.o

.text           0x00201530     0x1710
 *.c.o(.text)
 *(.text)
 .text          0x00201530       0x80 build/framebuffer.o
                0x00201530                InitFrameBuffer
 .text          0x002015b0       0x8c build/jtag.o
                0x002015b0                EnableJTAG
 .text          0x0020163c      0x6f4 build/move.o
                0x0020163c                readMario
                0x0020168c                moveRight
                0x00201714                moveLeft
                0x002017a0                jump
                0x002018a4                runJump
                0x00201b4c                fall2
                0x00201cbc                switchMap
 .text          0x00201d30      0x4ec build/draw.o
                0x00201d30                clearScreen
                0x00201d84                DrawPixel
                0x00201da4                DrawWinMessage
                0x00201e10                DrawLoseMessage
                0x00201e6c                DrawPauseMenu
                0x00201ebc                DrawMainMenuScreen
                0x00201f08                DrawMenuStar1
                0x00201f44                DrawMenuStar2
                0x00201f80                DrawMenuStar3
                0x00201fbc                DrawMenuMushroom
                0x00201fe8                DrawMenuMushroom2
                0x00202014                drawMap
                0x00202070                drawCell
 .text          0x0020221c      0x120 build/menus.o
                0x0020221c                mainMenu
                0x0020224c                MainUpPressed
                0x00202260                MainDownPressed
                0x00202274                MainAPressed
                0x0020228c                TurnPauseFlagOff
                0x002022a4                pauseMenu
                0x002022c4                PauseStPressed
                0x002022cc                PauseDnPressed
                0x002022e8                PauseUpPressed
                0x00202304                PauseAPressed
 .text          0x0020233c      0x1a0 build/interrupt.o
                0x0020233c                Interrupt_Install_Table
                0x00202374                Interrupt
                0x002023b0                IRQ
                0x00202444                RandomNumberGenerator
 .text          0x002024dc       0xa8 build/main.o
                0x002024dc                main
                0x0020250c                StartGame
                0x00202514                ReStartGame
                0x00202540                resumeGame
                0x0020255c                exitGame
                0x00202564                Restart_Game
                0x00202568                haltLoop$
 .text          0x00202584        0x0 build/asset.o
 .text          0x00202584      0x1c8 build/Stats.o
                0x00202584                Print_Init_Stats
                0x002025f0                Draw_Stats
                0x00202680                DrawString
                0x002026c4                Draw_Char
 .text          0x0020274c        0x0 build/gameState.o
 .text          0x0020274c      0x4f4 build/SNESControl.o
                0x0020274c                initGPIO
                0x002027bc                readMainMenuButtons
                0x0020283c                readEndButtons
                0x002029b8                readPauseButtons
                0x00202a40                readButtons
                0x00202b10                Wait
OUTPUT(build/output.elf elf32-littlearm)

.glue_7         0x00202c40        0x0
 .glue_7        0x00000000        0x0 linker stubs

.glue_7t        0x00202c40        0x0
 .glue_7t       0x00000000        0x0 linker stubs

.vfp11_veneer   0x00202c40        0x0
 .vfp11_veneer  0x00000000        0x0 linker stubs

.v4_bx          0x00202c40        0x0
 .v4_bx         0x00000000        0x0 linker stubs

.iplt           0x00202c40        0x0
 .iplt          0x00000000        0x0 build/framebuffer.o

.rel.dyn        0x00202c40        0x0
 .rel.iplt      0x00000000        0x0 build/framebuffer.o

.bss            0x00202c40        0x0
 .bss           0x00202c40        0x0 build/framebuffer.o
 .bss           0x00202c40        0x0 build/jtag.o
 .bss           0x00202c40        0x0 build/move.o
 .bss           0x00202c40        0x0 build/draw.o
 .bss           0x00202c40        0x0 build/menus.o
 .bss           0x00202c40        0x0 build/interrupt.o
 .bss           0x00202c40        0x0 build/main.o
 .bss           0x00202c40        0x0 build/asset.o
 .bss           0x00202c40        0x0 build/Stats.o
 .bss           0x00202c40        0x0 build/gameState.o
 .bss           0x00202c40        0x0 build/SNESControl.o

.ARM.attributes
                0x00000000       0x29
 .ARM.attributes
                0x00000000       0x29 build/framebuffer.o
 .ARM.attributes
                0x00000029       0x29 build/jtag.o
 .ARM.attributes
                0x00000052       0x29 build/move.o
 .ARM.attributes
                0x0000007b       0x29 build/draw.o
 .ARM.attributes
                0x000000a4       0x29 build/menus.o
 .ARM.attributes
                0x000000cd       0x29 build/interrupt.o
 .ARM.attributes
                0x000000f6       0x29 build/main.o
 .ARM.attributes
                0x0000011f       0x29 build/asset.o
 .ARM.attributes
                0x00000148       0x29 build/Stats.o
 .ARM.attributes
                0x00000171       0x29 build/gameState.o
 .ARM.attributes
                0x0000019a       0x29 build/SNESControl.o

.debug_line     0x00000000      0x89e
 .debug_line    0x00000000       0x67 build/framebuffer.o
 .debug_line    0x00000067       0x61 build/jtag.o
 .debug_line    0x000000c8      0x215 build/move.o
 .debug_line    0x000002dd      0x191 build/draw.o
 .debug_line    0x0000046e       0x89 build/menus.o
 .debug_line    0x000004f7       0xcb build/interrupt.o
 .debug_line    0x000005c2       0x79 build/main.o
 .debug_line    0x0000063b       0xc3 build/Stats.o
 .debug_line    0x000006fe      0x1a0 build/SNESControl.o

.debug_info     0x00000000      0x39d
 .debug_info    0x00000000       0x6b build/framebuffer.o
 .debug_info    0x0000006b       0x64 build/jtag.o
 .debug_info    0x000000cf       0x64 build/move.o
 .debug_info    0x00000133       0x66 build/draw.o
 .debug_info    0x00000199       0x67 build/menus.o
 .debug_info    0x00000200       0x67 build/interrupt.o
 .debug_info    0x00000267       0x62 build/main.o
 .debug_info    0x000002c9       0x67 build/Stats.o
 .debug_info    0x00000330       0x6d build/SNESControl.o

.debug_abbrev   0x00000000       0xb0
 .debug_abbrev  0x00000000       0x14 build/framebuffer.o
 .debug_abbrev  0x00000014       0x14 build/jtag.o
 .debug_abbrev  0x00000028       0x14 build/move.o
 .debug_abbrev  0x0000003c       0x14 build/draw.o
 .debug_abbrev  0x00000050       0x14 build/menus.o
 .debug_abbrev  0x00000064       0x12 build/interrupt.o
 .debug_abbrev  0x00000076       0x12 build/main.o
 .debug_abbrev  0x00000088       0x14 build/Stats.o
 .debug_abbrev  0x0000009c       0x14 build/SNESControl.o

.debug_aranges  0x00000000      0x130
 .debug_aranges
                0x00000000       0x20 build/framebuffer.o
 .debug_aranges
                0x00000020       0x20 build/jtag.o
 .debug_aranges
                0x00000040       0x20 build/move.o
 .debug_aranges
                0x00000060       0x20 build/draw.o
 .debug_aranges
                0x00000080       0x20 build/menus.o
 .debug_aranges
                0x000000a0       0x28 build/interrupt.o
 .debug_aranges
                0x000000c8       0x28 build/main.o
 .debug_aranges
                0x000000f0       0x20 build/Stats.o
 .debug_aranges
                0x00000110       0x20 build/SNESControl.o

.debug_ranges   0x00000000       0x40
 .debug_ranges  0x00000000       0x20 build/interrupt.o
 .debug_ranges  0x00000020       0x20 build/main.o
